target datalayout = "e-m:e-p270:32:32-p271:32:32-p272:64:64-i64:64-i128:128-f80:128-n8:16:32:64-S128"
target triple = "x86_64-pc-linux-gnu"

%"struct.PairingHeap<MergeCandidateKey>::Node" = type { %"struct.PairingHeap<MergeCandidateKey>::Link", %"struct.PairingHeap<MergeCandidateKey>::Link", ptr, %struct.MergeCandidateKey }
%"struct.PairingHeap<MergeCandidateKey>::Link" = type { ptr }
%struct.MergeCandidateKey = type { i64, i32 }

; Function Attrs: mustprogress nounwind uwtable
define linkonce_odr dso_local noundef zeroext i1 @_ZNK14MergeCandidate11isSiblingMCEv(ptr noundef nonnull align 8 dereferenceable(40) %0) #5 comdat align 2 {
  %2 = alloca ptr, align 8
  store ptr %0, ptr %2, align 8
  %3 = load ptr, ptr %2, align 8
  %4 = getelementptr inbounds %"struct.PairingHeap<MergeCandidateKey>::Node", ptr %3, i32 0, i32 3
  %5 = getelementptr inbounds %struct.MergeCandidateKey, ptr %4, i32 0, i32 0
  %6 = load i64, ptr %5, align 8
  %7 = and i64 %6, 1
  %8 = icmp ne i64 %7, 0
  ret i1 %8
}

; Function Attrs: mustprogress uwtable
define dso_local noundef ptr @_ZN14MergeCandidate11toMTaskEdgeEv(ptr noundef nonnull align 8 dereferenceable(40) %0) #4 align 2 {
  %2 = alloca ptr, align 8
  store ptr %0, ptr %2, align 8
  %3 = load ptr, ptr %2, align 8
  %4 = call noundef zeroext i1 @_ZNK14MergeCandidate11isSiblingMCEv(ptr noundef nonnull align 8 dereferenceable(40) %3)
  br i1 %4, label %5, label %6

5:                                                ; preds = %1
  br label %8

6:                                                ; preds = %1
  %7 = getelementptr inbounds i8, ptr %3, i64 -72
  br label %8

8:                                                ; preds = %6, %5
  %9 = phi ptr [ null, %5 ], [ %7, %6 ]
  ret ptr %9
}