; Function Attrs: mustprogress nofree norecurse nosync nounwind willreturn memory(argmem: read) uwtable
define dso_local noundef ptr @_ZN14MergeCandidate11toMTaskEdgeEv(ptr noundef nonnull readonly align 8 dereferenceable(40) %0) local_unnamed_addr #3 align 2 {
  %2 = getelementptr inbounds i8, ptr %0, i64 24
  %3 = load i64, ptr %2, align 8
  %4 = and i64 %3, 1
  %.not = icmp eq i64 %4, 0
  %5 = getelementptr inbounds i8, ptr %0, i64 -72
  %6 = select i1 %.not, ptr %5, ptr null
  ret ptr %6
}